target datalayout = "e-m:e-p270:32:32-p271:32:32-p272:64:64-i64:64-i128:128-f80:128-n8:16:32:64-S128"
target triple = "x86_64-pc-linux-gnu"

%struct._DlsMat = type { i32, i64, i64, i64, i64, i64, i64, ptr, i64, ptr }

; Function Attrs: nounwind uwtable
define void @SUNDlsMat_bandMatvec(ptr noundef %0, ptr noundef %1, ptr noundef %2, i64 noundef %3, i64 noundef %4, i64 noundef %5, i64 noundef %6) #0 {
  %8 = alloca ptr, align 8
  %9 = alloca ptr, align 8
  %10 = alloca ptr, align 8
  %11 = alloca i64, align 8
  %12 = alloca i64, align 8
  %13 = alloca i64, align 8
  %14 = alloca i64, align 8
  %15 = alloca i64, align 8
  %16 = alloca i64, align 8
  %17 = alloca i64, align 8
  %18 = alloca i64, align 8
  %19 = alloca ptr, align 8
  store ptr %0, ptr %8, align 8, !tbaa !20
  store ptr %1, ptr %9, align 8, !tbaa !22
  store ptr %2, ptr %10, align 8, !tbaa !22
  store i64 %3, ptr %11, align 8, !tbaa !21
  store i64 %4, ptr %12, align 8, !tbaa !21
  store i64 %5, ptr %13, align 8, !tbaa !21
  store i64 %6, ptr %14, align 8, !tbaa !21
  call void @llvm.lifetime.start.p0(i64 8, ptr %15) #3
  call void @llvm.lifetime.start.p0(i64 8, ptr %16) #3
  call void @llvm.lifetime.start.p0(i64 8, ptr %17) #3
  call void @llvm.lifetime.start.p0(i64 8, ptr %18) #3
  call void @llvm.lifetime.start.p0(i64 8, ptr %19) #3
  store i64 0, ptr %15, align 8, !tbaa !21
  br label %20

20:                                               ; preds = %28, %7
  %21 = load i64, ptr %15, align 8, !tbaa !21
  %22 = load i64, ptr %11, align 8, !tbaa !21
  %23 = icmp slt i64 %21, %22
  br i1 %23, label %24, label %31

24:                                               ; preds = %20
  %25 = load ptr, ptr %10, align 8, !tbaa !22
  %26 = load i64, ptr %15, align 8, !tbaa !21
  %27 = getelementptr inbounds double, ptr %25, i64 %26
  store double 0.000000e+00, ptr %27, align 8, !tbaa !23
  br label %28

28:                                               ; preds = %24
  %29 = load i64, ptr %15, align 8, !tbaa !21
  %30 = add nsw i64 %29, 1
  store i64 %30, ptr %15, align 8, !tbaa !21
  br label %20

31:                                               ; preds = %20
  store i64 0, ptr %16, align 8, !tbaa !21
  br label %32

32:                                               ; preds = %99, %31
  %33 = load i64, ptr %16, align 8, !tbaa !21
  %34 = load i64, ptr %11, align 8, !tbaa !21
  %35 = icmp slt i64 %33, %34
  br i1 %35, label %36, label %102

36:                                               ; preds = %32
  %37 = load ptr, ptr %8, align 8, !tbaa !20
  %38 = load i64, ptr %16, align 8, !tbaa !21
  %39 = getelementptr inbounds ptr, ptr %37, i64 %38
  %40 = load ptr, ptr %39, align 8, !tbaa !22
  %41 = load i64, ptr %14, align 8, !tbaa !21
  %42 = getelementptr inbounds double, ptr %40, i64 %41
  %43 = load i64, ptr %12, align 8, !tbaa !21
  %44 = sub i64 0, %43
  %45 = getelementptr inbounds double, ptr %42, i64 %44
  store ptr %45, ptr %19, align 8, !tbaa !22
  %46 = load i64, ptr %16, align 8, !tbaa !21
  %47 = load i64, ptr %12, align 8, !tbaa !21
  %48 = sub nsw i64 %46, %47
  %49 = icmp sgt i64 0, %48
  br i1 %49, label %50, label %51

50:                                               ; preds = %36
  br label %55

51:                                               ; preds = %36
  %52 = load i64, ptr %16, align 8, !tbaa !21
  %53 = load i64, ptr %12, align 8, !tbaa !21
  %54 = sub nsw i64 %52, %53
  br label %55

55:                                               ; preds = %51, %50
  %56 = phi i64 [ 0, %50 ], [ %54, %51 ]
  store i64 %56, ptr %17, align 8, !tbaa !21
  %57 = load i64, ptr %11, align 8, !tbaa !21
  %58 = sub nsw i64 %57, 1
  %59 = load i64, ptr %16, align 8, !tbaa !21
  %60 = load i64, ptr %13, align 8, !tbaa !21
  %61 = add nsw i64 %59, %60
  %62 = icmp slt i64 %58, %61
  br i1 %62, label %63, label %66

63:                                               ; preds = %55
  %64 = load i64, ptr %11, align 8, !tbaa !21
  %65 = sub nsw i64 %64, 1
  br label %70

66:                                               ; preds = %55
  %67 = load i64, ptr %16, align 8, !tbaa !21
  %68 = load i64, ptr %13, align 8, !tbaa !21
  %69 = add nsw i64 %67, %68
  br label %70

70:                                               ; preds = %66, %63
  %71 = phi i64 [ %65, %63 ], [ %69, %66 ]
  store i64 %71, ptr %18, align 8, !tbaa !21
  %72 = load i64, ptr %17, align 8, !tbaa !21
  store i64 %72, ptr %15, align 8, !tbaa !21
  br label %73

73:                                               ; preds = %95, %70
  %74 = load i64, ptr %15, align 8, !tbaa !21
  %75 = load i64, ptr %18, align 8, !tbaa !21
  %76 = icmp sle i64 %74, %75
  br i1 %76, label %77, label %98

77:                                               ; preds = %73
  %78 = load ptr, ptr %19, align 8, !tbaa !22
  %79 = load i64, ptr %15, align 8, !tbaa !21
  %80 = load i64, ptr %16, align 8, !tbaa !21
  %81 = sub nsw i64 %79, %80
  %82 = load i64, ptr %12, align 8, !tbaa !21
  %83 = add nsw i64 %81, %82
  %84 = getelementptr inbounds double, ptr %78, i64 %83
  %85 = load double, ptr %84, align 8, !tbaa !23
  %86 = load ptr, ptr %9, align 8, !tbaa !22
  %87 = load i64, ptr %16, align 8, !tbaa !21
  %88 = getelementptr inbounds double, ptr %86, i64 %87
  %89 = load double, ptr %88, align 8, !tbaa !23
  %90 = load ptr, ptr %10, align 8, !tbaa !22
  %91 = load i64, ptr %15, align 8, !tbaa !21
  %92 = getelementptr inbounds double, ptr %90, i64 %91
  %93 = load double, ptr %92, align 8, !tbaa !23
  %94 = call double @llvm.fmuladd.f64(double %85, double %89, double %93)
  store double %94, ptr %92, align 8, !tbaa !23
  br label %95

95:                                               ; preds = %77
  %96 = load i64, ptr %15, align 8, !tbaa !21
  %97 = add nsw i64 %96, 1
  store i64 %97, ptr %15, align 8, !tbaa !21
  br label %73

98:                                               ; preds = %73
  br label %99

99:                                               ; preds = %98
  %100 = load i64, ptr %16, align 8, !tbaa !21
  %101 = add nsw i64 %100, 1
  store i64 %101, ptr %16, align 8, !tbaa !21
  br label %32

102:                                              ; preds = %32
  call void @llvm.lifetime.end.p0(i64 8, ptr %19) #3
  call void @llvm.lifetime.end.p0(i64 8, ptr %18) #3
  call void @llvm.lifetime.end.p0(i64 8, ptr %17) #3
  call void @llvm.lifetime.end.p0(i64 8, ptr %16) #3
  call void @llvm.lifetime.end.p0(i64 8, ptr %15) #3
  ret void
}

; Function Attrs: nounwind uwtable
define void @SUNDlsMat_BandMatvec(ptr noundef %0, ptr noundef %1, ptr noundef %2) #0 {
  %4 = alloca ptr, align 8
  %5 = alloca ptr, align 8
  %6 = alloca ptr, align 8
  store ptr %0, ptr %4, align 8, !tbaa !3
  store ptr %1, ptr %5, align 8, !tbaa !22
  store ptr %2, ptr %6, align 8, !tbaa !22
  %7 = load ptr, ptr %4, align 8, !tbaa !3
  %8 = getelementptr inbounds nuw %struct._DlsMat, ptr %7, i32 0, i32 9
  %9 = load ptr, ptr %8, align 8, !tbaa !10
  %10 = load ptr, ptr %5, align 8, !tbaa !22
  %11 = load ptr, ptr %6, align 8, !tbaa !22
  %12 = load ptr, ptr %4, align 8, !tbaa !3
  %13 = getelementptr inbounds nuw %struct._DlsMat, ptr %12, i32 0, i32 1
  %14 = load i64, ptr %13, align 8, !tbaa !16
  %15 = load ptr, ptr %4, align 8, !tbaa !3
  %16 = getelementptr inbounds nuw %struct._DlsMat, ptr %15, i32 0, i32 4
  %17 = load i64, ptr %16, align 8, !tbaa !17
  %18 = load ptr, ptr %4, align 8, !tbaa !3
  %19 = getelementptr inbounds nuw %struct._DlsMat, ptr %18, i32 0, i32 5
  %20 = load i64, ptr %19, align 8, !tbaa !18
  %21 = load ptr, ptr %4, align 8, !tbaa !3
  %22 = getelementptr inbounds nuw %struct._DlsMat, ptr %21, i32 0, i32 6
  %23 = load i64, ptr %22, align 8, !tbaa !19
  call void @SUNDlsMat_bandMatvec(ptr noundef %9, ptr noundef %10, ptr noundef %11, i64 noundef %14, i64 noundef %17, i64 noundef %20, i64 noundef %23)
  ret void
}