; Function Attrs: nofree norecurse nosync nounwind memory(read, argmem: readwrite, inaccessiblemem: none) uwtable
define void @SUNDlsMat_BandMatvec(ptr noundef readonly captures(none) %0, ptr noundef readonly captures(none) %1, ptr noundef captures(none) %2) local_unnamed_addr #1 {
  %4 = getelementptr inbounds nuw i8, ptr %0, i64 72
  %5 = load ptr, ptr %4, align 8, !tbaa !3
  %6 = getelementptr inbounds nuw i8, ptr %0, i64 8
  %7 = load i64, ptr %6, align 8, !tbaa !12
  %8 = getelementptr inbounds nuw i8, ptr %0, i64 32
  %9 = load i64, ptr %8, align 8, !tbaa !13
  %10 = getelementptr inbounds nuw i8, ptr %0, i64 40
  %11 = load i64, ptr %10, align 8, !tbaa !14
  %12 = getelementptr inbounds nuw i8, ptr %0, i64 48
  %13 = load i64, ptr %12, align 8, !tbaa !15
  %14 = icmp sgt i64 %7, 0
  br i1 %14, label %.lr.ph43.i, label %SUNDlsMat_bandMatvec.exit

.lr.ph43.i:                                       ; preds = %3
  %15 = shl nuw i64 %7, 3
  tail call void @llvm.memset.p0.i64(ptr align 8 %2, i8 0, i64 %15, i1 false), !tbaa !17
  %16 = add nsw i64 %7, -1
  br label %17

17:                                               ; preds = %._crit_edge.i, %.lr.ph43.i
  %.03342.i = phi i64 [ 0, %.lr.ph43.i ], [ %35, %._crit_edge.i ]
  %18 = getelementptr inbounds nuw ptr, ptr %5, i64 %.03342.i
  %19 = load ptr, ptr %18, align 8, !tbaa !16
  %20 = getelementptr inbounds double, ptr %19, i64 %13
  %21 = sub nsw i64 %.03342.i, %9
  %22 = tail call i64 @llvm.smax.i64(i64 %21, i64 0)
  %23 = add nsw i64 %.03342.i, %11
  %.not.i = icmp sgt i64 %7, %23
  %24 = select i1 %.not.i, i64 %23, i64 %16
  %.not3739.i = icmp sgt i64 %22, %24
  br i1 %.not3739.i, label %._crit_edge.i, label %.lr.ph41.i

.lr.ph41.i:                                       ; preds = %17
  %25 = getelementptr inbounds nuw double, ptr %1, i64 %.03342.i
  br label %26

26:                                               ; preds = %26, %.lr.ph41.i
  %.140.i = phi i64 [ %22, %.lr.ph41.i ], [ %34, %26 ]
  %27 = sub nsw i64 %.140.i, %.03342.i
  %28 = getelementptr inbounds double, ptr %20, i64 %27
  %29 = load double, ptr %28, align 8, !tbaa !17
  %30 = load double, ptr %25, align 8, !tbaa !17
  %31 = getelementptr inbounds nuw double, ptr %2, i64 %.140.i
  %32 = load double, ptr %31, align 8, !tbaa !17
  %33 = tail call double @llvm.fmuladd.f64(double %29, double %30, double %32)
  store double %33, ptr %31, align 8, !tbaa !17
  %34 = add nuw nsw i64 %.140.i, 1
  %.not37.not.i = icmp slt i64 %.140.i, %24
  br i1 %.not37.not.i, label %26, label %._crit_edge.i

._crit_edge.i:                                    ; preds = %26, %17
  %35 = add nuw nsw i64 %.03342.i, 1
  %exitcond.not.i = icmp eq i64 %35, %7
  br i1 %exitcond.not.i, label %SUNDlsMat_bandMatvec.exit, label %17

SUNDlsMat_bandMatvec.exit:                        ; preds = %._crit_edge.i, %3
  ret void
}